target datalayout = "e-m:e-p270:32:32-p271:32:32-p272:64:64-i64:64-i128:128-f80:128-n8:16:32:64-S128"
target triple = "x86_64-pc-linux-gnu"

%struct._wmem_strbuf_t = type { ptr, ptr, i64, i64 }

@.str.25 = private unnamed_addr constant [58 x i8] c"Invalid UTF-8 at address %p offset %zu (length = %zu):\0A%s\00", align 1
@.str.67 = private unnamed_addr constant [1 x i8] zeroinitializer, align 1
@g_utf8_skip = external constant ptr, align 8

; Function Attrs: null_pointer_is_valid sspstrong uwtable
define internal void @append_trailer(ptr noundef %0, i64 noundef %1, ptr noundef %2, ptr noundef %3) #1 {
  %5 = alloca ptr, align 8
  %6 = alloca i64, align 8
  %7 = alloca ptr, align 8
  %8 = alloca ptr, align 8
  %9 = alloca i32, align 4
  %10 = alloca i64, align 8
  %11 = alloca ptr, align 8
  store ptr %0, ptr %5, align 8
  store i64 %1, ptr %6, align 8
  store ptr %2, ptr %7, align 8
  store ptr %3, ptr %8, align 8
  call void @llvm.lifetime.start.p0(i64 4, ptr %9) #19
  call void @llvm.lifetime.start.p0(i64 8, ptr %10) #19
  br label %12

12:                                               ; preds = %66, %4
  %13 = load i64, ptr %6, align 8
  %14 = icmp ugt i64 %13, 0
  br i1 %14, label %15, label %67

15:                                               ; preds = %12
  %16 = load ptr, ptr %5, align 8
  %17 = load i64, ptr %6, align 8
  %18 = call i32 @g_utf8_get_char_validated(ptr noundef %16, i64 noundef %17) #20
  store i32 %18, ptr %9, align 4
  %19 = load i32, ptr %9, align 4
  %20 = icmp eq i32 %19, -1
  br i1 %20, label %24, label %21

21:                                               ; preds = %15
  %22 = load i32, ptr %9, align 4
  %23 = icmp eq i32 %22, -2
  br i1 %23, label %24, label %33

24:                                               ; preds = %21, %15
  %25 = load ptr, ptr %7, align 8
  %26 = load ptr, ptr %5, align 8
  %27 = load i8, ptr %26, align 1
  call void @wmem_strbuf_append_hex(ptr noundef %25, i8 noundef zeroext %27)
  %28 = load ptr, ptr %8, align 8
  call void @wmem_strbuf_append_c_count(ptr noundef %28, i8 noundef signext 94, i64 noundef 4)
  %29 = load ptr, ptr %5, align 8
  %30 = getelementptr i8, ptr %29, i64 1
  store ptr %30, ptr %5, align 8
  %31 = load i64, ptr %6, align 8
  %32 = sub i64 %31, 1
  store i64 %32, ptr %6, align 8
  br label %66

33:                                               ; preds = %21
  %34 = load i32, ptr %9, align 4
  %35 = call i32 @g_unichar_isprint(i32 noundef %34) #21
  %36 = icmp ne i32 %35, 0
  br i1 %36, label %37, label %41

37:                                               ; preds = %33
  %38 = load ptr, ptr %7, align 8
  %39 = load i32, ptr %9, align 4
  call void @wmem_strbuf_append_unichar(ptr noundef %38, i32 noundef %39)
  %40 = load ptr, ptr %8, align 8
  call void @wmem_strbuf_append_c_count(ptr noundef %40, i8 noundef signext 32, i64 noundef 1)
  br label %47

41:                                               ; preds = %33
  %42 = load ptr, ptr %7, align 8
  %43 = load i32, ptr %9, align 4
  %44 = call i64 @wmem_strbuf_append_hex_unichar(ptr noundef %42, i32 noundef %43)
  store i64 %44, ptr %10, align 8
  %45 = load ptr, ptr %8, align 8
  %46 = load i64, ptr %10, align 8
  call void @wmem_strbuf_append_c_count(ptr noundef %45, i8 noundef signext 32, i64 noundef %46)
  br label %47

47:                                               ; preds = %41, %37
  call void @llvm.lifetime.start.p0(i64 8, ptr %11) #19
  %48 = load ptr, ptr %5, align 8
  %49 = load ptr, ptr @g_utf8_skip, align 8
  %50 = load ptr, ptr %5, align 8
  %51 = load i8, ptr %50, align 1
  %52 = zext i8 %51 to i64
  %53 = getelementptr i8, ptr %49, i64 %52
  %54 = load i8, ptr %53, align 1
  %55 = sext i8 %54 to i32
  %56 = sext i32 %55 to i64
  %57 = getelementptr i8, ptr %48, i64 %56
  store ptr %57, ptr %11, align 8
  %58 = load ptr, ptr %11, align 8
  %59 = load ptr, ptr %5, align 8
  %60 = ptrtoint ptr %58 to i64
  %61 = ptrtoint ptr %59 to i64
  %62 = sub i64 %60, %61
  %63 = load i64, ptr %6, align 8
  %64 = sub i64 %63, %62
  store i64 %64, ptr %6, align 8
  %65 = load ptr, ptr %11, align 8
  store ptr %65, ptr %5, align 8
  call void @llvm.lifetime.end.p0(i64 8, ptr %11) #19
  br label %66

66:                                               ; preds = %47, %24
  br label %12, !llvm.loop !13

67:                                               ; preds = %12
  call void @llvm.lifetime.end.p0(i64 8, ptr %10) #19
  call void @llvm.lifetime.end.p0(i64 4, ptr %9) #19
  ret void
}

; Function Attrs: null_pointer_is_valid sspstrong uwtable
define internal ptr @make_utf8_display(ptr noundef %0, i64 noundef %1, i64 noundef %2) #1 {
  %4 = alloca ptr, align 8
  %5 = alloca i64, align 8
  %6 = alloca i64, align 8
  %7 = alloca ptr, align 8
  %8 = alloca ptr, align 8
  %9 = alloca i32, align 4
  %10 = alloca i64, align 8
  %11 = alloca ptr, align 8
  store ptr %0, ptr %4, align 8
  store i64 %1, ptr %5, align 8
  store i64 %2, ptr %6, align 8
  call void @llvm.lifetime.start.p0(i64 8, ptr %7) #19
  call void @llvm.lifetime.start.p0(i64 8, ptr %8) #19
  call void @llvm.lifetime.start.p0(i64 4, ptr %9) #19
  call void @llvm.lifetime.start.p0(i64 8, ptr %10) #19
  %12 = call noalias ptr @wmem_strbuf_new(ptr noundef null, ptr noundef @.str.67)
  store ptr %12, ptr %7, align 8
  %13 = call noalias ptr @wmem_strbuf_new(ptr noundef null, ptr noundef @.str.67)
  store ptr %13, ptr %8, align 8
  call void @llvm.lifetime.start.p0(i64 8, ptr %11) #19
  %14 = load ptr, ptr %4, align 8
  store ptr %14, ptr %11, align 8
  br label %15

15:                                               ; preds = %39, %3
  %16 = load ptr, ptr %11, align 8
  %17 = load ptr, ptr %4, align 8
  %18 = load i64, ptr %6, align 8
  %19 = getelementptr i8, ptr %17, i64 %18
  %20 = icmp ult ptr %16, %19
  br i1 %20, label %22, label %21

21:                                               ; preds = %15
  call void @llvm.lifetime.end.p0(i64 8, ptr %11) #19
  br label %50

22:                                               ; preds = %15
  %23 = load ptr, ptr %11, align 8
  %24 = call i32 @g_utf8_get_char(ptr noundef %23) #20
  store i32 %24, ptr %9, align 4
  %25 = load i32, ptr %9, align 4
  %26 = call i32 @g_unichar_isprint(i32 noundef %25) #21
  %27 = icmp ne i32 %26, 0
  br i1 %27, label %28, label %32

28:                                               ; preds = %22
  %29 = load ptr, ptr %7, align 8
  %30 = load i32, ptr %9, align 4
  call void @wmem_strbuf_append_unichar(ptr noundef %29, i32 noundef %30)
  %31 = load ptr, ptr %8, align 8
  call void @wmem_strbuf_append_c(ptr noundef %31, i8 noundef signext 32)
  br label %38

32:                                               ; preds = %22
  %33 = load ptr, ptr %7, align 8
  %34 = load i32, ptr %9, align 4
  %35 = call i64 @wmem_strbuf_append_hex_unichar(ptr noundef %33, i32 noundef %34)
  store i64 %35, ptr %10, align 8
  %36 = load ptr, ptr %8, align 8
  %37 = load i64, ptr %10, align 8
  call void @wmem_strbuf_append_c_count(ptr noundef %36, i8 noundef signext 32, i64 noundef %37)
  br label %38

38:                                               ; preds = %32, %28
  br label %39

39:                                               ; preds = %38
  %40 = load ptr, ptr %11, align 8
  %41 = load ptr, ptr @g_utf8_skip, align 8
  %42 = load ptr, ptr %11, align 8
  %43 = load i8, ptr %42, align 1
  %44 = zext i8 %43 to i64
  %45 = getelementptr i8, ptr %41, i64 %44
  %46 = load i8, ptr %45, align 1
  %47 = sext i8 %46 to i32
  %48 = sext i32 %47 to i64
  %49 = getelementptr i8, ptr %40, i64 %48
  store ptr %49, ptr %11, align 8
  br label %15, !llvm.loop !12

50:                                               ; preds = %21
  %51 = load ptr, ptr %4, align 8
  %52 = load i64, ptr %6, align 8
  %53 = getelementptr i8, ptr %51, i64 %52
  %54 = load i64, ptr %5, align 8
  %55 = load i64, ptr %6, align 8
  %56 = sub i64 %54, %55
  %57 = load ptr, ptr %7, align 8
  %58 = load ptr, ptr %8, align 8
  call void @append_trailer(ptr noundef %53, i64 noundef %56, ptr noundef %57, ptr noundef %58)
  %59 = load ptr, ptr %7, align 8
  call void @wmem_strbuf_append_c(ptr noundef %59, i8 noundef signext 10)
  %60 = load ptr, ptr %7, align 8
  %61 = load ptr, ptr %8, align 8
  %62 = getelementptr inbounds nuw %struct._wmem_strbuf_t, ptr %61, i32 0, i32 1
  %63 = load ptr, ptr %62, align 8
  call void @wmem_strbuf_append(ptr noundef %60, ptr noundef %63)
  %64 = load ptr, ptr %8, align 8
  call void @wmem_strbuf_destroy(ptr noundef %64)
  %65 = load ptr, ptr %7, align 8
  %66 = call ptr @wmem_strbuf_finalize(ptr noundef %65)
  call void @llvm.lifetime.end.p0(i64 8, ptr %10) #19
  call void @llvm.lifetime.end.p0(i64 4, ptr %9) #19
  call void @llvm.lifetime.end.p0(i64 8, ptr %8) #19
  call void @llvm.lifetime.end.p0(i64 8, ptr %7) #19
  ret ptr %66
}

; Function Attrs: null_pointer_is_valid sspstrong uwtable
define void @ws_log_utf8_full(ptr noundef %0, i32 noundef %1, ptr noundef %2, i64 noundef %3, ptr noundef %4, ptr noundef %5, i64 noundef %6, ptr noundef %7) #1 {
  %9 = alloca ptr, align 8
  %10 = alloca i32, align 4
  %11 = alloca ptr, align 8
  %12 = alloca i64, align 8
  %13 = alloca ptr, align 8
  %14 = alloca ptr, align 8
  %15 = alloca i64, align 8
  %16 = alloca ptr, align 8
  %17 = alloca ptr, align 8
  %18 = alloca i64, align 8
  %19 = alloca i64, align 8
  %20 = alloca i32, align 4
  store ptr %0, ptr %9, align 8
  store i32 %1, ptr %10, align 4
  store ptr %2, ptr %11, align 8
  store i64 %3, ptr %12, align 8
  store ptr %4, ptr %13, align 8
  store ptr %5, ptr %14, align 8
  store i64 %6, ptr %15, align 8
  store ptr %7, ptr %16, align 8
  %21 = load ptr, ptr %9, align 8
  %22 = load i32, ptr %10, align 4
  %23 = call zeroext i1 @ws_log_msg_is_active(ptr noundef %21, i32 noundef %22)
  br i1 %23, label %25, label %24

24:                                               ; preds = %8
  br label %69

25:                                               ; preds = %8
  call void @llvm.lifetime.start.p0(i64 8, ptr %17) #19
  call void @llvm.lifetime.start.p0(i64 8, ptr %18) #19
  call void @llvm.lifetime.start.p0(i64 8, ptr %19) #19
  %26 = load i64, ptr %15, align 8
  %27 = icmp slt i64 %26, 0
  br i1 %27, label %28, label %31

28:                                               ; preds = %25
  %29 = load ptr, ptr %14, align 8
  %30 = call i64 @strlen(ptr noundef %29) #20
  store i64 %30, ptr %18, align 8
  br label %33

31:                                               ; preds = %25
  %32 = load i64, ptr %15, align 8
  store i64 %32, ptr %18, align 8
  br label %33

33:                                               ; preds = %31, %28
  %34 = load ptr, ptr %16, align 8
  %35 = icmp eq ptr %34, null
  br i1 %35, label %40, label %36

36:                                               ; preds = %33
  %37 = load ptr, ptr %16, align 8
  %38 = load ptr, ptr %14, align 8
  %39 = icmp ult ptr %37, %38
  br i1 %39, label %40, label %47

40:                                               ; preds = %36, %33
  %41 = load ptr, ptr %14, align 8
  %42 = load i64, ptr %18, align 8
  %43 = call i32 @g_utf8_validate(ptr noundef %41, i64 noundef %42, ptr noundef %16)
  %44 = icmp ne i32 %43, 0
  br i1 %44, label %45, label %46

45:                                               ; preds = %40
  store i32 1, ptr %20, align 4
  br label %67

46:                                               ; preds = %40
  br label %47

47:                                               ; preds = %46, %36
  %48 = load ptr, ptr %16, align 8
  %49 = load ptr, ptr %14, align 8
  %50 = ptrtoint ptr %48 to i64
  %51 = ptrtoint ptr %49 to i64
  %52 = sub i64 %50, %51
  store i64 %52, ptr %19, align 8
  %53 = load ptr, ptr %14, align 8
  %54 = load i64, ptr %18, align 8
  %55 = load i64, ptr %19, align 8
  %56 = call ptr @make_utf8_display(ptr noundef %53, i64 noundef %54, i64 noundef %55)
  store ptr %56, ptr %17, align 8
  %57 = load ptr, ptr %9, align 8
  %58 = load i32, ptr %10, align 4
  %59 = load ptr, ptr %11, align 8
  %60 = load i64, ptr %12, align 8
  %61 = load ptr, ptr %13, align 8
  %62 = load ptr, ptr %14, align 8
  %63 = load i64, ptr %19, align 8
  %64 = load i64, ptr %18, align 8
  %65 = load ptr, ptr %17, align 8
  call void (ptr, i32, ptr, i64, ptr, ptr, ...) @ws_log_write_always_full(ptr noundef %57, i32 noundef %58, ptr noundef %59, i64 noundef %60, ptr noundef %61, ptr noundef @.str.25, ptr noundef %62, i64 noundef %63, i64 noundef %64, ptr noundef %65)
  %66 = load ptr, ptr %17, align 8
  call void @g_free(ptr noundef %66)
  store i32 0, ptr %20, align 4
  br label %67

67:                                               ; preds = %47, %45
  call void @llvm.lifetime.end.p0(i64 8, ptr %19) #19
  call void @llvm.lifetime.end.p0(i64 8, ptr %18) #19
  call void @llvm.lifetime.end.p0(i64 8, ptr %17) #19
  %68 = load i32, ptr %20, align 4
  switch i32 %68, label %70 [
    i32 0, label %69
    i32 1, label %69
  ]

69:                                               ; preds = %24, %67, %67
  ret void

70:                                               ; preds = %67
  unreachable
}