; Function Attrs: null_pointer_is_valid sspstrong uwtable
define void @ws_log_utf8_full(ptr noundef %0, i32 noundef %1, ptr noundef %2, i64 noundef %3, ptr noundef %4, ptr noundef %5, i64 noundef %6, ptr noundef %7) local_unnamed_addr #1 {
  %9 = alloca ptr, align 8
  store ptr %7, ptr %9, align 8
  %10 = tail call zeroext i1 @ws_log_msg_is_active(ptr noundef %0, i32 noundef %1)
  br i1 %10, label %11, label %69

11:                                               ; preds = %8
  %12 = icmp slt i64 %6, 0
  br i1 %12, label %13, label %15

13:                                               ; preds = %11
  %14 = tail call i64 @strlen(ptr noundef %5) #25
  br label %15

15:                                               ; preds = %11, %13
  %.0 = phi i64 [ %14, %13 ], [ %6, %11 ]
  %16 = icmp eq ptr %7, null
  %17 = icmp ult ptr %7, %5
  %or.cond = or i1 %16, %17
  br i1 %or.cond, label %18, label %20

18:                                               ; preds = %15
  %19 = call i32 @g_utf8_validate(ptr noundef %5, i64 noundef %.0, ptr noundef nonnull %9)
  %.not = icmp eq i32 %19, 0
  br i1 %.not, label %._crit_edge, label %69

._crit_edge:                                      ; preds = %18
  %.pre = load ptr, ptr %9, align 8
  br label %20

20:                                               ; preds = %._crit_edge, %15
  %21 = phi ptr [ %.pre, %._crit_edge ], [ %7, %15 ]
  %22 = ptrtoint ptr %21 to i64
  %23 = ptrtoint ptr %5 to i64
  %24 = sub i64 %22, %23
  %25 = call noalias ptr @wmem_strbuf_new(ptr noundef null, ptr noundef nonnull @.str.67)
  %26 = call noalias ptr @wmem_strbuf_new(ptr noundef null, ptr noundef nonnull @.str.67)
  %27 = getelementptr i8, ptr %5, i64 %24
  %28 = icmp ult ptr %5, %21
  br i1 %28, label %.lr.ph.i, label %._crit_edge.i

.lr.ph.i:                                         ; preds = %20
  %29 = load ptr, ptr @g_utf8_skip, align 8
  br label %52

._crit_edge.i:                                    ; preds = %58, %20
  %30 = sub i64 %.0, %24
  %.not28.i.i = icmp eq i64 %30, 0
  br i1 %.not28.i.i, label %make_utf8_display.exit, label %.lr.ph.i.i

.lr.ph.i.i:                                       ; preds = %._crit_edge.i
  %31 = load ptr, ptr @g_utf8_skip, align 8
  br label %32

32:                                               ; preds = %51, %.lr.ph.i.i
  %.030.i.i = phi ptr [ %27, %.lr.ph.i.i ], [ %.1.i.i, %51 ]
  %.02429.i.i = phi i64 [ %30, %.lr.ph.i.i ], [ %.125.i.i, %51 ]
  %33 = call i32 @g_utf8_get_char_validated(ptr noundef %.030.i.i, i64 noundef %.02429.i.i) #25
  %or.cond.i.i = icmp ugt i32 %33, -3
  br i1 %or.cond.i.i, label %34, label %38

34:                                               ; preds = %32
  %35 = load i8, ptr %.030.i.i, align 1
  call void @wmem_strbuf_append_hex(ptr noundef %25, i8 noundef zeroext %35)
  call void @wmem_strbuf_append_c_count(ptr noundef %26, i8 noundef signext 94, i64 noundef 4)
  %36 = getelementptr i8, ptr %.030.i.i, i64 1
  %37 = add i64 %.02429.i.i, -1
  br label %51

38:                                               ; preds = %32
  %39 = call i32 @g_unichar_isprint(i32 noundef %33) #22
  %.not27.i.i = icmp eq i32 %39, 0
  br i1 %.not27.i.i, label %41, label %40

40:                                               ; preds = %38
  call void @wmem_strbuf_append_unichar(ptr noundef %25, i32 noundef %33)
  br label %43

41:                                               ; preds = %38
  %42 = call i64 @wmem_strbuf_append_hex_unichar(ptr noundef %25, i32 noundef %33)
  br label %43

43:                                               ; preds = %41, %40
  %.sink.i.i = phi i64 [ %42, %41 ], [ 1, %40 ]
  call void @wmem_strbuf_append_c_count(ptr noundef %26, i8 noundef signext 32, i64 noundef %.sink.i.i)
  %44 = load i8, ptr %.030.i.i, align 1
  %45 = zext i8 %44 to i64
  %46 = getelementptr i8, ptr %31, i64 %45
  %47 = load i8, ptr %46, align 1
  %48 = sext i8 %47 to i64
  %49 = getelementptr i8, ptr %.030.i.i, i64 %48
  %50 = sub i64 %.02429.i.i, %48
  br label %51

51:                                               ; preds = %43, %34
  %.125.i.i = phi i64 [ %37, %34 ], [ %50, %43 ]
  %.1.i.i = phi ptr [ %36, %34 ], [ %49, %43 ]
  %.not.i.i = icmp eq i64 %.125.i.i, 0
  br i1 %.not.i.i, label %make_utf8_display.exit, label %32, !llvm.loop !12

52:                                               ; preds = %58, %.lr.ph.i
  %.026.i = phi ptr [ %5, %.lr.ph.i ], [ %64, %58 ]
  %53 = call i32 @g_utf8_get_char(ptr noundef %.026.i) #25
  %54 = call i32 @g_unichar_isprint(i32 noundef %53) #22
  %.not.i = icmp eq i32 %54, 0
  br i1 %.not.i, label %56, label %55

55:                                               ; preds = %52
  call void @wmem_strbuf_append_unichar(ptr noundef %25, i32 noundef %53)
  call void @wmem_strbuf_append_c(ptr noundef %26, i8 noundef signext 32)
  br label %58

56:                                               ; preds = %52
  %57 = call i64 @wmem_strbuf_append_hex_unichar(ptr noundef %25, i32 noundef %53)
  call void @wmem_strbuf_append_c_count(ptr noundef %26, i8 noundef signext 32, i64 noundef %57)
  br label %58

58:                                               ; preds = %56, %55
  %59 = load i8, ptr %.026.i, align 1
  %60 = zext i8 %59 to i64
  %61 = getelementptr i8, ptr %29, i64 %60
  %62 = load i8, ptr %61, align 1
  %63 = sext i8 %62 to i64
  %64 = getelementptr i8, ptr %.026.i, i64 %63
  %65 = icmp ult ptr %64, %21
  br i1 %65, label %52, label %._crit_edge.i, !llvm.loop !13

make_utf8_display.exit:                           ; preds = %51, %._crit_edge.i
  call void @wmem_strbuf_append_c(ptr noundef %25, i8 noundef signext 10)
  %66 = getelementptr inbounds nuw i8, ptr %26, i64 8
  %67 = load ptr, ptr %66, align 8
  call void @wmem_strbuf_append(ptr noundef %25, ptr noundef %67)
  call void @wmem_strbuf_destroy(ptr noundef %26)
  %68 = call ptr @wmem_strbuf_finalize(ptr noundef %25)
  call void (ptr, i32, ptr, i64, ptr, ptr, ...) @ws_log_write_always_full(ptr noundef %0, i32 noundef %1, ptr noundef %2, i64 noundef %3, ptr noundef %4, ptr noundef nonnull @.str.25, ptr noundef %5, i64 noundef %24, i64 noundef %.0, ptr noundef %68)
  call void @g_free(ptr noundef %68)
  br label %69

69:                                               ; preds = %make_utf8_display.exit, %18, %8
  ret void
}